EXPORTS
	KMinApplicationStackSize @ 1 NONAME DATA 4
	_Z16StartupApaServerR14MApaAppStarter @ 2 NONAME
	_Z23MinApplicationStackSizev @ 3 NONAME
	_Z23StartupApaServerProcessv @ 4 NONAME
	_ZN11CApaAppData16CanUseScreenModeEi @ 5 NONAME
	_ZN11CApaAppData16SetShortCaptionLERK7TDesC16 @ 6 NONAME
	_ZN11CApaAppData4NewLERK12TApaAppEntryR3RFs @ 7 NONAME
	_ZN11CApaAppDataD0Ev @ 8 NONAME
	_ZN11CApaAppDataD1Ev @ 9 NONAME
	_ZN11CApaAppDataD2Ev @ 10 NONAME
	_ZN11CApaAppList12RestartScanLEv @ 11 NONAME
	_ZN11CApaAppList14CompareStringsERK7HBufC16S2_ @ 12 NONAME
	_ZN11CApaAppList15UpdatedAppsListEv @ 13 NONAME ABSENT
	_ZN11CApaAppList16StartIdleUpdateLEP19MApaAppListObserver @ 14 NONAME
	_ZN11CApaAppList16StartIdleUpdateLEv @ 15 NONAME
	_ZN11CApaAppList18SetUpdatedAppsListEP16CUpdatedAppsList @ 16 NONAME ABSENT
	_ZN11CApaAppList22AddForcedRegistrationLEP7HBufC16 @ 17 NONAME
	_ZN11CApaAppList22FindAndAddSpecificAppLEP16CApaAppRegFinder4TUid @ 18 NONAME
	_ZN11CApaAppList24ResetForcedRegistrationsEv @ 19 NONAME
	_ZN11CApaAppList4NewLER3RFsP16CApaAppRegFinderii @ 20 NONAME
	_ZN11CApaAppList4SelfEv @ 21 NONAME
	_ZN11CApaAppList6PurgeLEv @ 22 NONAME
	_ZN11CApaAppList8StopScanEi @ 23 NONAME
	_ZN11CApaAppList9InitListLEP19MApaAppListObserver @ 24 NONAME
	_ZN11CApaAppListD0Ev @ 25 NONAME
	_ZN11CApaAppListD1Ev @ 26 NONAME
	_ZN11CApaAppListD2Ev @ 27 NONAME
	_ZN12TApaTaskList10CycleTasksE4TUidNS_15TCycleDirectionE @ 28 NONAME
	_ZN12TApaTaskList7FindAppE4TUid @ 29 NONAME
	_ZN12TApaTaskList7FindAppERK7TDesC16 @ 30 NONAME
	_ZN12TApaTaskList7FindDocERK7TDesC16 @ 31 NONAME
	_ZN12TApaTaskList9FindByPosEi @ 32 NONAME
	_ZN12TApaTaskListC1ER10RWsSession @ 33 NONAME
	_ZN12TApaTaskListC2ER10RWsSession @ 34 NONAME
	_ZN13RApaLsSession12CancelNotifyEv @ 35 NONAME
	_ZN13RApaLsSession13SetFsSessionLER3RFs @ 36 NONAME
	_ZN13RApaLsSession13StartDocumentER5RFile4TUidR9TThreadIdP14TRequestStatus @ 37 NONAME
	_ZN13RApaLsSession13StartDocumentER5RFileR9TThreadIdP14TRequestStatus @ 38 NONAME
	_ZN13RApaLsSession13StartDocumentER5RFileRK9TDataTypeR9TThreadIdP14TRequestStatus @ 39 NONAME
	_ZN13RApaLsSession13StartDocumentERK7TDesC164TUidR9TThreadIdNS_11TLaunchTypeE @ 40 NONAME
	_ZN13RApaLsSession13StartDocumentERK7TDesC16R9TThreadIdNS_11TLaunchTypeE @ 41 NONAME
	_ZN13RApaLsSession13StartDocumentERK7TDesC16RK9TDataTypeR9TThreadIdNS_11TLaunchTypeE @ 42 NONAME
	_ZN13RApaLsSession14ClearFsSessionEv @ 43 NONAME
	_ZN13RApaLsSession14CreateDocumentERK7TDesC164TUidR9TThreadIdNS_11TLaunchTypeE @ 44 NONAME
	_ZN13RApaLsSession15RecognizeFilesLERK7TDesC16R27CDataRecognitionResultArrayR14TRequestStatus @ 45 NONAME
	_ZN13RApaLsSession15RecognizeFilesLERK7TDesC16RK6TDesC8R27CDataRecognitionResultArrayR14TRequestStatus @ 46 NONAME
	_ZN13RApaLsSession17DeleteDataMappingERK9TDataType @ 47 NONAME
	_ZN13RApaLsSession17DeleteDataMappingERK9TDataType4TUid @ 48 NONAME
	_ZN13RApaLsSession17ForceRegistrationERK13RPointerArrayI7TDesC16E @ 49 NONAME
	_ZN13RApaLsSession17InsertDataMappingERK9TDataTypel4TUid @ 50 NONAME
	_ZN13RApaLsSession17InsertDataMappingERK9TDataTypel4TUidS3_ @ 51 NONAME
	_ZN13RApaLsSession17SetMaxDataBufSizeEi @ 52 NONAME
	_ZN13RApaLsSession18SetAppShortCaptionERK7TDesC169TLanguage4TUid @ 53 NONAME
	_ZN13RApaLsSession20CancelRecognizeFilesEv @ 54 NONAME
	_ZN13RApaLsSession21SetAcceptedConfidenceEi @ 55 NONAME
	_ZN13RApaLsSession23RApaLsSession_Reserved1Ev @ 56 NONAME
	_ZN13RApaLsSession23RApaLsSession_Reserved2Ev @ 57 NONAME
	_ZN13RApaLsSession25InsertDataMappingIfHigherERK9TDataTypel4TUidRi @ 58 NONAME
	_ZN13RApaLsSession25NotifyOnDataMappingChangeER14TRequestStatus @ 59 NONAME
	_ZN13RApaLsSession29RegisterNonNativeApplicationLE4TUidRK10TDriveUnitR34CApaRegistrationResourceFileWriterP33CApaLocalisableResourceFileWriterPK5RFile @ 60 NONAME
	_ZN13RApaLsSession31CancelNotifyOnDataMappingChangeEv @ 61 NONAME
	_ZN13RApaLsSession31DeregisterNonNativeApplicationLE4TUid @ 62 NONAME
	_ZN13RApaLsSession33RegisterNonNativeApplicationTypeLE4TUidRK7TDesC16 @ 63 NONAME
	_ZN13RApaLsSession35CommitNonNativeApplicationsUpdatesLEv @ 64 NONAME
	_ZN13RApaLsSession35DeregisterNonNativeApplicationTypeLE4TUid @ 65 NONAME
	_ZN13RApaLsSession36PrepareNonNativeApplicationsUpdatesLEv @ 66 NONAME
	_ZN13RApaLsSession36RollbackNonNativeApplicationsUpdatesEv @ 67 NONAME
	_ZN13RApaLsSession5CloseEv @ 68 NONAME
	_ZN13RApaLsSession7ConnectEv @ 69 NONAME
	_ZN13RApaLsSession8StartAppERK15CApaCommandLine @ 70 NONAME
	_ZN13RApaLsSession8StartAppERK15CApaCommandLineR9TThreadId @ 71 NONAME
	_ZN13RApaLsSession8StartAppERK15CApaCommandLineR9TThreadIdP14TRequestStatus @ 72 NONAME
	_ZN13RApaLsSession9FsSessionEv @ 73 NONAME
	_ZN13RApaLsSession9SetNotifyEiR14TRequestStatus @ 74 NONAME
	_ZN13RApaLsSessionC1Ev @ 75 NONAME
	_ZN13RApaLsSessionC2Ev @ 76 NONAME
	_ZN16CApaMaskedBitmap12InternalizeLER11RReadStream @ 77 NONAME
	_ZN16CApaMaskedBitmap13SetMaskBitmapEP10CFbsBitmap @ 78 NONAME
	_ZN16CApaMaskedBitmap4NewLEPKS_ @ 79 NONAME
	_ZN16CApaMaskedBitmap5NewLCEv @ 80 NONAME
	_ZN16CApaMaskedBitmapD0Ev @ 81 NONAME
	_ZN16CApaMaskedBitmapD1Ev @ 82 NONAME
	_ZN16CApaMaskedBitmapD2Ev @ 83 NONAME
	_ZN17CApaSystemControl7CreateLEv @ 84 NONAME
	_ZN18TApaPictureFactoryC1EP11CApaProcess @ 85 NONAME
	_ZN18TApaPictureFactoryC1Ev @ 86 NONAME
	_ZN18TApaPictureFactoryC2EP11CApaProcess @ 87 NONAME
	_ZN18TApaPictureFactoryC2Ev @ 88 NONAME
	_ZN19CApaAppListNotifier4NewLEP23MApaAppListServObserverN7CActive9TPriorityE @ 89 NONAME
	_ZN19CApaAppListNotifierD0Ev @ 90 NONAME
	_ZN19CApaAppListNotifierD1Ev @ 91 NONAME
	_ZN19CApaAppListNotifierD2Ev @ 92 NONAME
	_ZN19CApaWindowGroupName11SetAppReadyEi @ 93 NONAME
	_ZN19CApaWindowGroupName11SetCaptionLERK7TDesC16 @ 94 NONAME
	_ZN19CApaWindowGroupName11SetDocNameLERK7TDesC16 @ 95 NONAME
	_ZN19CApaWindowGroupName12FindByAppUidE4TUidR10RWsSessionRi @ 96 NONAME
	_ZN19CApaWindowGroupName13FindByCaptionERK7TDesC16R10RWsSessionRi @ 97 NONAME
	_ZN19CApaWindowGroupName13FindByDocNameERK7TDesC16R10RWsSessionRi @ 98 NONAME
	_ZN19CApaWindowGroupName17SetDocNameIsAFileEi @ 99 NONAME
	_ZN19CApaWindowGroupName18ConstructFromWgIdLEi @ 100 NONAME
	_ZN19CApaWindowGroupName18SetWindowGroupNameEP7HBufC16 @ 101 NONAME
	_ZN19CApaWindowGroupName19SetWindowGroupNameLERK7TDesC16 @ 102 NONAME
	_ZN19CApaWindowGroupName26SetRespondsToShutdownEventEi @ 103 NONAME
	_ZN19CApaWindowGroupName29SetRespondsToSwitchFilesEventEi @ 104 NONAME
	_ZN19CApaWindowGroupName3NewERK10RWsSessionP7HBufC16 @ 105 NONAME
	_ZN19CApaWindowGroupName4NewLERK10RWsSession @ 106 NONAME
	_ZN19CApaWindowGroupName4NewLERK10RWsSessionRK7TDesC16 @ 107 NONAME
	_ZN19CApaWindowGroupName4NewLERK10RWsSessioni @ 108 NONAME
	_ZN19CApaWindowGroupName5NewLCERK10RWsSession @ 109 NONAME
	_ZN19CApaWindowGroupName5NewLCERK10RWsSessionRK7TDesC16 @ 110 NONAME
	_ZN19CApaWindowGroupName5NewLCERK10RWsSessioni @ 111 NONAME
	_ZN19CApaWindowGroupName7SetBusyEi @ 112 NONAME
	_ZN19CApaWindowGroupName9SetAppUidE4TUid @ 113 NONAME
	_ZN19CApaWindowGroupName9SetHiddenEi @ 114 NONAME
	_ZN19CApaWindowGroupName9SetSystemEi @ 115 NONAME
	_ZN19CApaWindowGroupNameD0Ev @ 116 NONAME
	_ZN19CApaWindowGroupNameD1Ev @ 117 NONAME
	_ZN19CApaWindowGroupNameD2Ev @ 118 NONAME
	_ZN21CApaAppInfoFileWriter11AddCaptionLE9TLanguageRK7TDesC16 @ 119 NONAME
	_ZN21CApaAppInfoFileWriter12AddDataTypeLERK21TDataTypeWithPriority @ 120 NONAME
	_ZN21CApaAppInfoFileWriter13SetCapabilityERK6TDesC8 @ 121 NONAME
	_ZN21CApaAppInfoFileWriter6StoreLEv @ 122 NONAME
	_ZN21CApaAppInfoFileWriter8AddIconLER16CApaMaskedBitmap @ 123 NONAME
	_ZN21CApaAppInfoFileWriterD0Ev @ 124 NONAME
	_ZN21CApaAppInfoFileWriterD1Ev @ 125 NONAME
	_ZN21CApaAppInfoFileWriterD2Ev @ 126 NONAME
	_ZN21CApaSystemControlList4NewLER3RFs @ 127 NONAME
	_ZN21CApaSystemControlList7UpdateLEv @ 128 NONAME
	_ZN21CApaSystemControlListD0Ev @ 129 NONAME
	_ZN21CApaSystemControlListD1Ev @ 130 NONAME
	_ZN21CApaSystemControlListD2Ev @ 131 NONAME
	_ZN22ForJavaMIDletInstaller18GetJavaMIDletInfoLER3RFsRK7TDesC16RmS5_ @ 132 NONAME
	_ZN22ForJavaMIDletInstaller28NewInterimFormatFileWriterLCER3RFsRK7TDesC164TUidmi @ 133 NONAME
	_ZN22ForJavaMIDletInstaller33CheckInterimFormatFileNotCorruptLER5RFile @ 134 NONAME
	_ZN23MApaAppListServObserver33MApaAppListServObserver_Reserved1Ev @ 135 NONAME
	_ZN23MApaAppListServObserver33MApaAppListServObserver_Reserved2Ev @ 136 NONAME
	_ZN23MApaAppListServObserverC2Ev @ 137 NONAME
	_ZN27CDataRecognitionResultArrayC1Ev @ 138 NONAME
	_ZN27CDataRecognitionResultArrayC2Ev @ 139 NONAME
	_ZN27CDataRecognitionResultArrayD0Ev @ 140 NONAME
	_ZN27CDataRecognitionResultArrayD1Ev @ 141 NONAME
	_ZN27CDataRecognitionResultArrayD2Ev @ 142 NONAME
	_ZN31TIconLoaderAndIconArrayForLeaks27TestIconLoaderAndIconArrayLEv @ 143 NONAME
	_ZN33CApaLocalisableResourceFileWriter4NewLERK7TDesC16S2_iS2_ @ 144 NONAME
	_ZN33CApaLocalisableResourceFileWriterD0Ev @ 145 NONAME
	_ZN33CApaLocalisableResourceFileWriterD1Ev @ 146 NONAME
	_ZN33CApaLocalisableResourceFileWriterD2Ev @ 147 NONAME
	_ZN34CApaRegistrationResourceFileWriter12AddDataTypeLEiRK6TDesC8 @ 148 NONAME
	_ZN34CApaRegistrationResourceFileWriter13SetGroupNameLERK7TDesC16 @ 149 NONAME
	_ZN34CApaRegistrationResourceFileWriter14SetOpaqueDataLERK6TDesC8 @ 150 NONAME
	_ZN34CApaRegistrationResourceFileWriter15SetAppIsHiddenLEi @ 151 NONAME
	_ZN34CApaRegistrationResourceFileWriter17SetEmbeddabilityLEN17TApaAppCapability14TEmbeddabilityE @ 152 NONAME
	_ZN34CApaRegistrationResourceFileWriter19SetSupportsNewFileLEi @ 153 NONAME
	_ZN34CApaRegistrationResourceFileWriter21AddFileOwnershipInfoLERK7TDesC16 @ 154 NONAME
	_ZN34CApaRegistrationResourceFileWriter22SetLaunchInBackgroundLEi @ 155 NONAME
	_ZN34CApaRegistrationResourceFileWriter23SetDefaultScreenNumberLEi @ 156 NONAME
	_ZN34CApaRegistrationResourceFileWriter4NewLE4TUidRK7TDesC16j @ 157 NONAME
	_ZN34CApaRegistrationResourceFileWriterD0Ev @ 158 NONAME
	_ZN34CApaRegistrationResourceFileWriterD1Ev @ 159 NONAME
	_ZN34CApaRegistrationResourceFileWriterD2Ev @ 160 NONAME
	_ZN8ApaUtils24HandleAsRegistrationFileERK8TUidType @ 161 NONAME
	_ZN8CApaDoor16SetFormatToIconLEv @ 162 NONAME
	_ZN8CApaDoor17SetFormatToGlassLEv @ 163 NONAME
	_ZN8CApaDoor25SetFormatToTemporaryIconLEi @ 164 NONAME
	_ZN8CApaDoor4NewLER3RFsR12CApaDocumentRK5TSize @ 165 NONAME
	_ZN8CApaDoor4NewLER3RFsRK12CStreamStore9TStreamIdR11CApaProcess @ 166 NONAME
	_ZN8CApaDoor5NewLCER3RFsR12CApaDocumentRK5TSize @ 167 NONAME
	_ZN8CApaDoor8RestoreLERK12CStreamStore9TStreamId @ 168 NONAME
	_ZN8CApaDoor9DocumentLEi @ 169 NONAME
	_ZN8CApaDoorD0Ev @ 170 NONAME
	_ZN8CApaDoorD1Ev @ 171 NONAME
	_ZN8CApaDoorD2Ev @ 172 NONAME
	_ZN8TApaTask11SendMessageE4TUidRK6TDesC8 @ 173 NONAME
	_ZN8TApaTask14SwitchOpenFileERK7TDesC16 @ 174 NONAME
	_ZN8TApaTask15SendSystemEventE15TApaSystemEvent @ 175 NONAME
	_ZN8TApaTask16SendToBackgroundEv @ 176 NONAME
	_ZN8TApaTask16SwitchCreateFileERK7TDesC16 @ 177 NONAME
	_ZN8TApaTask17BringToForegroundEv @ 178 NONAME
	_ZN8TApaTask7EndTaskEv @ 179 NONAME
	_ZN8TApaTask7SendKeyERK9TKeyEvent @ 180 NONAME
	_ZN8TApaTask7SendKeyEii @ 181 NONAME
	_ZN8TApaTask7SetWgIdEi @ 182 NONAME
	_ZN8TApaTask8KillTaskEv @ 183 NONAME
	_ZN8TApaTaskC1ER10RWsSession @ 184 NONAME
	_ZN8TApaTaskC2ER10RWsSession @ 185 NONAME
	_ZNK11CApaAppData10CapabilityER5TDes8 @ 186 NONAME
	_ZNK11CApaAppData10IconSizesLEv @ 187 NONAME
	_ZNK11CApaAppData10OpaqueDataEv @ 188 NONAME
	_ZNK11CApaAppData10OwnedFilesEv @ 189 NONAME
	_ZNK11CApaAppData11GetIconInfoERiS0_ @ 190 NONAME
	_ZNK11CApaAppData12IconFileNameEv @ 191 NONAME
	_ZNK11CApaAppData14NonMbmIconFileEv @ 192 NONAME
	_ZNK11CApaAppData17ImplementsServiceE4TUid @ 193 NONAME
	_ZNK11CApaAppData19ApplicationLanguageEv @ 194 NONAME
	_ZNK11CApaAppData19DefaultScreenNumberEv @ 195 NONAME
	_ZNK11CApaAppData20RegistrationFileNameEv @ 196 NONAME
	_ZNK11CApaAppData20RegistrationFileUsedEv @ 197 NONAME
	_ZNK11CApaAppData24NonNativeApplicationTypeEv @ 198 NONAME
	_ZNK11CApaAppData27LocalisableResourceFileNameEv @ 199 NONAME
	_ZNK11CApaAppData4IconE5TSize @ 200 NONAME
	_ZNK11CApaAppData4IconEi @ 201 NONAME
	_ZNK11CApaAppData5ViewsEv @ 202 NONAME
	_ZNK11CApaAppData8AppEntryEv @ 203 NONAME
	_ZNK11CApaAppData8DataTypeERK9TDataType @ 204 NONAME
	_ZNK11CApaAppData9IsPendingEv @ 205 NONAME
	_ZNK11CApaAppList12AppDataByUidE4TUid @ 206 NONAME
	_ZNK11CApaAppList17AppDataByFileNameERK7TDesC16 @ 207 NONAME
	_ZNK11CApaAppList17AppScanInProgressEv @ 208 NONAME
	_ZNK11CApaAppList17ServiceUidBufferLE4TUid @ 209 NONAME
	_ZNK11CApaAppList19IsFirstScanCompleteEv @ 210 NONAME
	_ZNK11CApaAppList19ServiceArrayBufferLE4TUid @ 211 NONAME
	_ZNK11CApaAppList20IsIdleUpdateCompleteEv @ 212 NONAME
	_ZNK11CApaAppList21PreferredDataHandlerLERK9TDataType @ 213 NONAME
	_ZNK11CApaAppList21PreferredDataHandlerLERK9TDataTypePK4TUidRi @ 214 NONAME
	_ZNK11CApaAppList23IsLanguageChangePendingEv @ 215 NONAME
	_ZNK11CApaAppList23ServiceImplArrayBufferLE4TUid @ 216 NONAME
	_ZNK11CApaAppList23ServiceImplArrayBufferLE4TUidRK9TDataType @ 217 NONAME
	_ZNK11CApaAppList24ServiceOpaqueDataBufferLE4TUidS0_ @ 218 NONAME
	_ZNK11CApaAppList5CountEv @ 219 NONAME
	_ZNK11CApaAppList7NextAppEPK11CApaAppData @ 220 NONAME
	_ZNK11CApaAppList7NextAppEPK11CApaAppDatai @ 221 NONAME
	_ZNK11CApaAppList8FirstAppEi @ 222 NONAME
	_ZNK11CApaAppList8FirstAppEv @ 223 NONAME
	_ZNK13RApaLsSession10GetAllAppsEi @ 224 NONAME
	_ZNK13RApaLsSession10GetAllAppsEv @ 225 NONAME
	_ZNK13RApaLsSession10GetAppIconE4TUid5TSizeR16CApaMaskedBitmap @ 226 NONAME
	_ZNK13RApaLsSession10GetAppIconE4TUidR5RFile @ 227 NONAME
	_ZNK13RApaLsSession10GetAppIconE4TUidRP7HBufC16 @ 228 NONAME
	_ZNK13RApaLsSession10GetAppIconE4TUidiR16CApaMaskedBitmap @ 229 NONAME
	_ZNK13RApaLsSession10GetAppInfoER11TApaAppInfo4TUid @ 230 NONAME
	_ZNK13RApaLsSession10GetAppTypeER4TUidS0_ @ 231 NONAME
	_ZNK13RApaLsSession10GetNextAppER11TApaAppInfo @ 232 NONAME
	_ZNK13RApaLsSession10GetNextAppER11TApaAppInfoi @ 233 NONAME
	_ZNK13RApaLsSession11GetAppViewsER13CArrayFixFlatI15TApaAppViewInfoE4TUid @ 234 NONAME
	_ZNK13RApaLsSession13GetServerAppsE4TUid @ 235 NONAME
	_ZNK13RApaLsSession13GetServerAppsE4TUidi @ 236 NONAME
	_ZNK13RApaLsSession13RecognizeDataERK5RFileR22TDataRecognitionResult @ 237 NONAME
	_ZNK13RApaLsSession13RecognizeDataERK7TDesC16RK6TDesC8R22TDataRecognitionResult @ 238 NONAME
	_ZNK13RApaLsSession14AppForDataTypeERK9TDataTypeR4TUid @ 239 NONAME
	_ZNK13RApaLsSession14AppForDocumentERK5RFileR4TUidR9TDataType @ 240 NONAME
	_ZNK13RApaLsSession14AppForDocumentERK7TDesC16R4TUidR9TDataType @ 241 NONAME
	_ZNK13RApaLsSession14GetAppViewIconE4TUidS0_RK5TSizeR16CApaMaskedBitmap @ 242 NONAME
	_ZNK13RApaLsSession14GetAppViewIconE4TUidS0_RP7HBufC16 @ 243 NONAME
	_ZNK13RApaLsSession15GetAppIconSizesE4TUidR13CArrayFixFlatI5TSizeE @ 244 NONAME
	_ZNK13RApaLsSession15GetAppServicesLE4TUidR13CArrayFixFlatIS0_E @ 245 NONAME
	_ZNK13RApaLsSession15GetFilteredAppsERK23TApaEmbeddabilityFilter @ 246 NONAME
	_ZNK13RApaLsSession15GetFilteredAppsERK23TApaEmbeddabilityFilteri @ 247 NONAME
	_ZNK13RApaLsSession15GetFilteredAppsEjj @ 248 NONAME
	_ZNK13RApaLsSession15GetFilteredAppsEjji @ 249 NONAME
	_ZNK13RApaLsSession15RecognizeFilesLERK7TDesC16R27CDataRecognitionResultArray @ 250 NONAME
	_ZNK13RApaLsSession15RecognizeFilesLERK7TDesC16RK6TDesC8R27CDataRecognitionResultArray @ 251 NONAME
	_ZNK13RApaLsSession16GetAppByDataTypeERK9TDataType4TUidRS3_ @ 252 NONAME
	_ZNK13RApaLsSession16GetAppCapabilityER5TDes84TUid @ 253 NONAME
	_ZNK13RApaLsSession16GetAppOwnedFilesER12CDesC16Array4TUid @ 254 NONAME
	_ZNK13RApaLsSession16GetAppServicesLCE4TUid @ 255 NONAME
	_ZNK13RApaLsSession17GetEmbeddableAppsEi @ 256 NONAME
	_ZNK13RApaLsSession17GetEmbeddableAppsEv @ 257 NONAME
	_ZNK13RApaLsSession17GetMaxDataBufSizeERi @ 258 NONAME
	_ZNK13RApaLsSession18EmbeddableAppCountERi @ 259 NONAME
	_ZNK13RApaLsSession19ApplicationLanguageE4TUidR9TLanguage @ 260 NONAME
	_ZNK13RApaLsSession19GetPreferredBufSizeERi @ 261 NONAME
	_ZNK13RApaLsSession21GetAcceptedConfidenceERi @ 262 NONAME
	_ZNK13RApaLsSession21MatchesSecurityPolicyERi4TUidRK15TSecurityPolicy @ 263 NONAME
	_ZNK13RApaLsSession21RecognizeSpecificDataERK5RFileRK9TDataTypeRi @ 264 NONAME
	_ZNK13RApaLsSession21RecognizeSpecificDataERK7TDesC16RK6TDesC8RK9TDataTypeRi @ 265 NONAME
	_ZNK13RApaLsSession22GetDefaultScreenNumberERi4TUid @ 266 NONAME
	_ZNK13RApaLsSession22GetSupportedDataTypesLER13CArrayFixFlatI9TDataTypeE @ 267 NONAME
	_ZNK13RApaLsSession23NumberOfOwnDefinedIconsE4TUidRi @ 268 NONAME
	_ZNK13RApaLsSession24AppForDataTypeAndServiceERK9TDataType4TUidRS3_ @ 269 NONAME
	_ZNK13RApaLsSession24AppForDocumentAndServiceERK5RFile4TUidRS3_R9TDataType @ 270 NONAME
	_ZNK13RApaLsSession24AppForDocumentAndServiceERK7TDesC164TUidRS3_R9TDataType @ 271 NONAME
	_ZNK13RApaLsSession25GetAppServiceOpaqueDataLCE4TUidS0_ @ 272 NONAME
	_ZNK13RApaLsSession27GetServiceImplementationsLCE4TUid @ 273 NONAME
	_ZNK13RApaLsSession27GetServiceImplementationsLCE4TUidRK9TDataType @ 274 NONAME
	_ZNK13RApaLsSession36CancelListPopulationCompleteObserverEv @ 275 NONAME
	_ZNK13RApaLsSession38RegisterListPopulationCompleteObserverER14TRequestStatus @ 276 NONAME
	_ZNK13RApaLsSession7VersionEv @ 277 NONAME
	_ZNK13RApaLsSession8AppCountERi @ 278 NONAME
	_ZNK13RApaLsSession9IsProgramERK7TDesC16Ri @ 279 NONAME
	_ZNK15CApaAppViewData10IconSizesLEv @ 280 NONAME
	_ZNK15CApaAppViewData10ScreenModeEv @ 281 NONAME
	_ZNK15CApaAppViewData12IconFileNameEv @ 282 NONAME
	_ZNK15CApaAppViewData14NonMbmIconFileEv @ 283 NONAME
	_ZNK15CApaAppViewData3UidEv @ 284 NONAME
	_ZNK15CApaAppViewData4IconERK5TSize @ 285 NONAME
	_ZNK16CApaMaskedBitmap12ExternalizeLER12RWriteStream @ 286 NONAME
	_ZNK16CApaMaskedBitmap4MaskEv @ 287 NONAME
	_ZNK17CApaSystemControl12ShortCaptionEv @ 288 NONAME
	_ZNK17CApaSystemControl4IconEv @ 289 NONAME
	_ZNK17CApaSystemControl4TypeEv @ 290 NONAME
	_ZNK17CApaSystemControl7CaptionEv @ 291 NONAME
	_ZNK17CApaSystemControl8FileNameEv @ 292 NONAME
	_ZNK18TApaAppServiceInfo10OpaqueDataEv @ 293 NONAME
	_ZNK18TApaAppServiceInfo3UidEv @ 294 NONAME
	_ZNK18TApaAppServiceInfo9DataTypesEv @ 295 NONAME
	_ZNK18TApaPictureFactory11NewPictureLER14TPictureHeaderRK12CStreamStore @ 296 NONAME
	_ZNK19CApaWindowGroupName10IsAppReadyEv @ 297 NONAME
	_ZNK19CApaWindowGroupName14DocNameIsAFileEv @ 298 NONAME
	_ZNK19CApaWindowGroupName15WindowGroupNameEv @ 299 NONAME
	_ZNK19CApaWindowGroupName18SetWindowGroupNameER12RWindowGroup @ 300 NONAME
	_ZNK19CApaWindowGroupName23RespondsToShutdownEventEv @ 301 NONAME
	_ZNK19CApaWindowGroupName26RespondsToSwitchFilesEventEv @ 302 NONAME
	_ZNK19CApaWindowGroupName6AppUidEv @ 303 NONAME
	_ZNK19CApaWindowGroupName6HiddenEv @ 304 NONAME
	_ZNK19CApaWindowGroupName6IsBusyEv @ 305 NONAME
	_ZNK19CApaWindowGroupName7CaptionEv @ 306 NONAME
	_ZNK19CApaWindowGroupName7DocNameEv @ 307 NONAME
	_ZNK19CApaWindowGroupName8IsSystemEv @ 308 NONAME
	_ZNK21CApaSystemControlList5CountEv @ 309 NONAME
	_ZNK21CApaSystemControlList5IndexE4TUid @ 310 NONAME
	_ZNK21CApaSystemControlList7ControlE4TUid @ 311 NONAME
	_ZNK21CApaSystemControlList7ControlEi @ 312 NONAME
	_ZNK27CDataRecognitionResultArray12GetFileNameLER4TBufILi256EEj @ 313 NONAME
	_ZNK27CDataRecognitionResultArray25GetDataRecognitionResultLER22TDataRecognitionResultj @ 314 NONAME
	_ZNK27CDataRecognitionResultArray4PathEv @ 315 NONAME
	_ZNK27CDataRecognitionResultArray5CountEv @ 316 NONAME
	_ZNK8CApaDoor7AppUidLEv @ 317 NONAME
	_ZNK8TApaTask4WgIdEv @ 318 NONAME
	_ZNK8TApaTask6ExistsEv @ 319 NONAME
	_ZNK8TApaTask8ThreadIdEv @ 320 NONAME
	_ZN17CApaSecurityUtils16CheckAppSecurityERK7TPtrC16RiS3_ @ 321 NONAME
	_ZN11CApaAppData11SetCaptionLERK7TDesC16 @ 322 NONAME
	_ZN11CApaAppData9SetIconsLERK7TDesC16i @ 323 NONAME
	_ZTI11CApaAppData @ 324 NONAME
	_ZTI11CApaAppList @ 325 NONAME
	_ZTI12CApaAppEntry @ 326 NONAME
	_ZTI13RApaLsSession @ 327 NONAME
	_ZTI14CApaAIFCaption @ 328 NONAME
	_ZTI15CApaAIFViewData @ 329 NONAME
	_ZTI15CApaAppInfoFile @ 330 NONAME
	_ZTI15CApaAppViewData @ 331 NONAME
	_ZTI15CApaIconPicture @ 332 NONAME
	_ZTI16CApaMaskedBitmap @ 333 NONAME
	_ZTI16TDesCArrayFiller @ 334 NONAME
	_ZTI16TSizeArrayFiller @ 335 NONAME
	_ZTI17CApaAppInfoReader @ 336 NONAME
	_ZTI17CApaSystemControl @ 337 NONAME
	_ZTI18TApaPictureFactory @ 338 NONAME
	_ZTI19CApaAppInfoReaderV2 @ 339 NONAME
	_ZTI19CApaAppListNotifier @ 340 NONAME
	_ZTI19CApaWindowGroupName @ 341 NONAME
	_ZTI20TViewDataArrayFiller @ 342 NONAME
	_ZTI21CApaAppInfoFileReader @ 343 NONAME
	_ZTI21CApaAppInfoFileWriter @ 344 NONAME
	_ZTI21CApaSystemControlList @ 345 NONAME
	_ZTI21CAsyncFileRecognition @ 346 NONAME
	_ZTI22CApaLsSessionExtension @ 347 NONAME
	_ZTI23MApaAppListServObserver @ 348 NONAME
	_ZTI27CDataRecognitionResultArray @ 349 NONAME
	_ZTI30CApaAppServiceInfoArrayWrapper @ 350 NONAME
	_ZTI32CDataRecognitionResultArrayEntry @ 351 NONAME
	_ZTI33CApaLocalisableResourceFileWriter @ 352 NONAME
	_ZTI34CApaRegistrationResourceFileWriter @ 353 NONAME
	_ZTI7HBufBuf @ 354 NONAME
	_ZTI8CApaDoor @ 355 NONAME
	_ZTIN26CApaResourceFileWriterBase11RBufferSinkE @ 356 NONAME
	_ZTV11CApaAppData @ 357 NONAME
	_ZTV11CApaAppList @ 358 NONAME
	_ZTV12CApaAppEntry @ 359 NONAME
	_ZTV13RApaLsSession @ 360 NONAME
	_ZTV14CApaAIFCaption @ 361 NONAME
	_ZTV15CApaAIFViewData @ 362 NONAME
	_ZTV15CApaAppInfoFile @ 363 NONAME
	_ZTV15CApaAppViewData @ 364 NONAME
	_ZTV15CApaIconPicture @ 365 NONAME
	_ZTV16CApaMaskedBitmap @ 366 NONAME
	_ZTV16TDesCArrayFiller @ 367 NONAME
	_ZTV16TSizeArrayFiller @ 368 NONAME
	_ZTV17CApaAppInfoReader @ 369 NONAME
	_ZTV17CApaSystemControl @ 370 NONAME
	_ZTV18TApaPictureFactory @ 371 NONAME
	_ZTV19CApaAppInfoReaderV2 @ 372 NONAME
	_ZTV19CApaAppListNotifier @ 373 NONAME
	_ZTV19CApaWindowGroupName @ 374 NONAME
	_ZTV20TViewDataArrayFiller @ 375 NONAME
	_ZTV21CApaAppInfoFileReader @ 376 NONAME
	_ZTV21CApaAppInfoFileWriter @ 377 NONAME
	_ZTV21CApaSystemControlList @ 378 NONAME
	_ZTV21CAsyncFileRecognition @ 379 NONAME
	_ZTV22CApaLsSessionExtension @ 380 NONAME
	_ZTV23MApaAppListServObserver @ 381 NONAME
	_ZTV27CDataRecognitionResultArray @ 382 NONAME
	_ZTV30CApaAppServiceInfoArrayWrapper @ 383 NONAME
	_ZTV32CDataRecognitionResultArrayEntry @ 384 NONAME
	_ZTV33CApaLocalisableResourceFileWriter @ 385 NONAME
	_ZTV34CApaRegistrationResourceFileWriter @ 386 NONAME
	_ZTV7HBufBuf @ 387 NONAME
	_ZTV8CApaDoor @ 388 NONAME
	_ZTVN26CApaResourceFileWriterBase11RBufferSinkE @ 389 NONAME
	_ZN31TIconLoaderAndIconArrayForLeaks25TestIconCaptionOverridesLEv @ 390 NONAME
	_ZN13RApaLsSession40ForceCommitNonNativeApplicationsUpdatesLEv @ 391 NONAME
	_ZN11CApaAppList20AppListUpdatePendingEv @ 392 NONAME
	_ZN11CApaAppList19UninstalledAppArrayEv @ 393 NONAME
	